; Function Attrs: mustprogress uwtable
define void @_ZN18OpenImageIO_v2_6_022declare_imageio_formatERKNSt7__cxx1112basic_stringIcSt11char_traitsIcESaIcEEEPFPNS_10ImageInputEvEPPKcPFPNS_11ImageOutputEvESE_SD_(ptr noundef nonnull align 8 dereferenceable(32) %format_name, ptr noundef %input_creator, ptr noundef %input_extensions, ptr noundef %output_creator, ptr noundef %output_extensions, ptr noundef %lib_version) local_unnamed_addr #5 personality ptr @__gxx_personality_v0 {
entry:
  %call1.i.i.i.i = tail call noundef i32 @pthread_mutex_lock(ptr noundef nonnull @_ZN18OpenImageIO_v2_6_03pvt13imageio_mutexE) #23
  %tobool.not.i.i = icmp eq i32 %call1.i.i.i.i, 0
  br i1 %tobool.not.i.i, label %_ZNSt10lock_guardISt15recursive_mutexEC2ERS0_.exit, label %if.then.i.i

if.then.i.i:                                      ; preds = %entry
  tail call void @_ZSt20__throw_system_errori(i32 noundef %call1.i.i.i.i) #26
  unreachable

_ZNSt10lock_guardISt15recursive_mutexEC2ERS0_.exit: ; preds = %entry
  invoke void @_ZN18OpenImageIO_v2_6_029declare_imageio_format_lockedERKNSt7__cxx1112basic_stringIcSt11char_traitsIcESaIcEEEPFPNS_10ImageInputEvEPPKcPFPNS_11ImageOutputEvESE_SD_(ptr noundef nonnull align 8 dereferenceable(32) %format_name, ptr noundef %input_creator, ptr noundef %input_extensions, ptr noundef %output_creator, ptr noundef %output_extensions, ptr noundef %lib_version)
          to label %invoke.cont unwind label %lpad

invoke.cont:                                      ; preds = %_ZNSt10lock_guardISt15recursive_mutexEC2ERS0_.exit
  %call1.i.i.i.i1 = tail call noundef i32 @pthread_mutex_unlock(ptr noundef nonnull @_ZN18OpenImageIO_v2_6_03pvt13imageio_mutexE) #23
  ret void

lpad:                                             ; preds = %_ZNSt10lock_guardISt15recursive_mutexEC2ERS0_.exit
  %0 = landingpad { ptr, i32 }
          cleanup
  %call1.i.i.i.i2 = tail call noundef i32 @pthread_mutex_unlock(ptr noundef nonnull @_ZN18OpenImageIO_v2_6_03pvt13imageio_mutexE) #23
  resume { ptr, i32 } %0
}